target datalayout = "e-m:e-p270:32:32-p271:32:32-p272:64:64-i64:64-i128:128-f80:128-n8:16:32:64-S128"
target triple = "x86_64-pc-linux-gnu"

%"class.clang::ASTDeclReader" = type <{ ptr, %"class.clang::ASTDeclMerger", ptr, %"struct.clang::ASTReader::RecordLocation", %"class.clang::GlobalDeclID", %"class.clang::SourceLocation", [4 x i8], i64, i32, [4 x i8], %"class.clang::GlobalDeclID", ptr, i8, [7 x i8] }>
%"class.clang::ASTDeclMerger" = type { ptr }
%"struct.clang::ASTReader::RecordLocation" = type { ptr, i64 }
%"class.clang::SourceLocation" = type { i32 }
%"class.clang::GlobalDeclID" = type { %"class.clang::DeclIDBase" }
%"class.clang::DeclIDBase" = type { i64 }
%"class.llvm::SmallVectorImpl" = type { %"class.llvm::SmallVectorTemplateBase" }
%"class.llvm::SmallVectorTemplateBase" = type { %"class.llvm::SmallVectorTemplateCommon" }
%"class.llvm::SmallVectorTemplateCommon" = type { %"class.llvm::SmallVectorBase" }
%"class.llvm::SmallVectorBase" = type { ptr, i32, i32 }
%"class.llvm::SmallVector.44" = type { %"class.llvm::SmallVectorImpl", %"struct.llvm::SmallVectorStorage.45" }
%"struct.llvm::SmallVectorStorage.45" = type { [512 x i8] }
%"class.clang::NamedDecl" = type { %"class.clang::Decl.base", %"class.clang::DeclarationName" }
%"class.clang::Decl.base" = type <{ ptr, %"class.llvm::PointerIntPair.829", %"class.llvm::PointerUnion", %"class.clang::SourceLocation", i32, i8 }>
%"class.llvm::PointerIntPair.829" = type { %"struct.llvm::detail::PunnedPointer.830" }
%"struct.llvm::detail::PunnedPointer.830" = type { [8 x i8] }
%"class.llvm::PointerUnion" = type { %"class.llvm::pointer_union_detail::PointerUnionMembers" }
%"class.llvm::pointer_union_detail::PointerUnionMembers" = type { %"class.llvm::pointer_union_detail::PointerUnionMembers.831" }
%"class.llvm::pointer_union_detail::PointerUnionMembers.831" = type { %"class.llvm::pointer_union_detail::PointerUnionMembers.832" }
%"class.llvm::pointer_union_detail::PointerUnionMembers.832" = type { %"class.llvm::PointerIntPair.833" }
%"class.llvm::PointerIntPair.833" = type { %"struct.llvm::detail::PunnedPointer.834" }
%"struct.llvm::detail::PunnedPointer.834" = type { [8 x i8] }
%"class.clang::DeclarationName" = type { i64 }
%"class.llvm::PointerUnion.841" = type { %"class.llvm::pointer_union_detail::PointerUnionMembers.842" }
%"class.llvm::pointer_union_detail::PointerUnionMembers.842" = type { %"class.llvm::pointer_union_detail::PointerUnionMembers.843" }
%"class.llvm::pointer_union_detail::PointerUnionMembers.843" = type { %"class.llvm::pointer_union_detail::PointerUnionMembers.844" }
%"class.llvm::pointer_union_detail::PointerUnionMembers.844" = type { %"class.llvm::PointerIntPair.845" }
%"class.llvm::PointerIntPair.845" = type { %"struct.llvm::detail::PunnedPointer.834" }
%"class.clang::ASTRecordReader" = type { %"class.clang::serialization::DataStreamBasicReader", ptr, ptr, i32, %"class.llvm::SmallVector.44" }
%"class.clang::serialization::DataStreamBasicReader" = type { %"class.clang::serialization::BasicReaderBase" }
%"class.clang::serialization::BasicReaderBase" = type { ptr }
%"class.clang::UsingShadowDecl" = type { %"class.clang::NamedDecl", %"class.clang::Redeclarable.1157", ptr, ptr }
%"class.clang::Redeclarable.1157" = type { %"class.clang::Redeclarable<clang::UsingShadowDecl>::DeclLink", ptr }
%"class.clang::Redeclarable<clang::UsingShadowDecl>::DeclLink" = type { %"class.llvm::PointerUnion.841" }
%"class.clang::ConstructorUsingShadowDecl" = type <{ %"class.clang::UsingShadowDecl", ptr, ptr, i8, [7 x i8] }>

; Function Attrs: mustprogress nounwind uwtable
define linkonce_odr hidden noundef ptr @_ZN4llvm16cast_convert_valIN5clang26ConstructorUsingShadowDeclEPNS1_4DeclES4_E4doitEPKS3_(ptr noundef %0) #0 comdat align 2 {
  %2 = alloca ptr, align 8
  store ptr %0, ptr %2, align 8
  %3 = load ptr, ptr %2, align 8
  ret ptr %3
}

; Function Attrs: mustprogress nounwind uwtable
define linkonce_odr hidden noundef ptr @_ZN4llvm8CastInfoIN5clang26ConstructorUsingShadowDeclEPNS1_4DeclEvE6doCastERKS4_(ptr noundef nonnull align 8 dereferenceable(8) %0) #0 comdat align 2 {
  %2 = alloca ptr, align 8
  store ptr %0, ptr %2, align 8
  %3 = load ptr, ptr %2, align 8
  %4 = load ptr, ptr %3, align 8
  %5 = call noundef ptr @_ZN4llvm16cast_convert_valIN5clang26ConstructorUsingShadowDeclEPNS1_4DeclES4_E4doitEPKS3_(ptr noundef %4)
  ret ptr %5
}

; Function Attrs: mustprogress nounwind uwtable
define linkonce_odr hidden noundef nonnull align 8 dereferenceable(8) ptr @_ZN4llvm14ValueIsPresentIPN5clang4DeclEvE11unwrapValueERS3_(ptr noundef nonnull align 8 dereferenceable(8) %0) #0 comdat align 2 {
  %2 = alloca ptr, align 8
  store ptr %0, ptr %2, align 8
  %3 = load ptr, ptr %2, align 8
  ret ptr %3
}

; Function Attrs: mustprogress nounwind uwtable
define linkonce_odr hidden noundef zeroext i1 @_ZN4llvm14ValueIsPresentIPN5clang4DeclEvE9isPresentERKS3_(ptr noundef nonnull align 8 dereferenceable(8) %0) #0 comdat align 2 {
  %2 = alloca ptr, align 8
  store ptr %0, ptr %2, align 8
  %3 = load ptr, ptr %2, align 8
  %4 = load ptr, ptr %3, align 8
  %5 = icmp ne ptr %4, null
  ret i1 %5
}

; Function Attrs: mustprogress nounwind uwtable
define linkonce_odr hidden noundef nonnull align 8 dereferenceable(8) ptr @_ZN4llvm13simplify_typeIPN5clang4DeclEE18getSimplifiedValueERS3_(ptr noundef nonnull align 8 dereferenceable(8) %0) #0 comdat align 2 {
  %2 = alloca ptr, align 8
  store ptr %0, ptr %2, align 8
  %3 = load ptr, ptr %2, align 8
  ret ptr %3
}

; Function Attrs: mustprogress nounwind uwtable
define linkonce_odr hidden noundef ptr @_ZN4llvm4castIN5clang26ConstructorUsingShadowDeclENS1_4DeclEEEDcPT0_(ptr noundef %0) #0 comdat {
  %2 = alloca ptr, align 8
  store ptr %0, ptr %2, align 8
  %3 = call noundef ptr @_ZN4llvm8CastInfoIN5clang26ConstructorUsingShadowDeclEPNS1_4DeclEvE6doCastERKS4_(ptr noundef nonnull align 8 dereferenceable(8) %2)
  ret ptr %3
}

; Function Attrs: mustprogress nounwind uwtable
define linkonce_odr hidden noundef nonnull align 8 dereferenceable(8) ptr @_ZN4llvm6detail11unwrapValueIPN5clang4DeclEEEDcRT_(ptr noundef nonnull align 8 dereferenceable(8) %0) #0 comdat {
  %2 = alloca ptr, align 8
  store ptr %0, ptr %2, align 8
  %3 = load ptr, ptr %2, align 8
  %4 = call noundef nonnull align 8 dereferenceable(8) ptr @_ZN4llvm14ValueIsPresentIPN5clang4DeclEvE11unwrapValueERS3_(ptr noundef nonnull align 8 dereferenceable(8) %3)
  ret ptr %4
}

; Function Attrs: mustprogress nounwind uwtable
define linkonce_odr hidden noundef ptr @_ZN4llvm8CastInfoIN5clang26ConstructorUsingShadowDeclEPNS1_4DeclEvE10castFailedEv() #0 comdat align 2 {
  ret ptr null
}

; Function Attrs: mustprogress nounwind uwtable
define linkonce_odr hidden noundef zeroext i1 @_ZN4llvm6detail9isPresentIPN5clang4DeclEEEbRKT_(ptr noundef nonnull align 8 dereferenceable(8) %0) #0 comdat {
  %2 = alloca ptr, align 8
  store ptr %0, ptr %2, align 8
  %3 = load ptr, ptr %2, align 8
  %4 = call noundef nonnull align 8 dereferenceable(8) ptr @_ZN4llvm13simplify_typeIPN5clang4DeclEE18getSimplifiedValueERS3_(ptr noundef nonnull align 8 dereferenceable(8) %3)
  %5 = call noundef zeroext i1 @_ZN4llvm14ValueIsPresentIPN5clang4DeclEvE9isPresentERKS3_(ptr noundef nonnull align 8 dereferenceable(8) %4)
  ret i1 %5
}

; Function Attrs: mustprogress nounwind uwtable
define linkonce_odr hidden noundef ptr @_ZN4llvm15cast_if_presentIN5clang26ConstructorUsingShadowDeclENS1_4DeclEEEDaPT0_(ptr noundef %0) #0 comdat {
  %2 = alloca ptr, align 8
  %3 = alloca ptr, align 8
  store ptr %0, ptr %3, align 8
  %4 = call noundef zeroext i1 @_ZN4llvm6detail9isPresentIPN5clang4DeclEEEbRKT_(ptr noundef nonnull align 8 dereferenceable(8) %3)
  br i1 %4, label %7, label %5

5:                                                ; preds = %1
  %6 = call noundef ptr @_ZN4llvm8CastInfoIN5clang26ConstructorUsingShadowDeclEPNS1_4DeclEvE10castFailedEv()
  store ptr %6, ptr %2, align 8
  br label %11

7:                                                ; preds = %1
  %8 = call noundef nonnull align 8 dereferenceable(8) ptr @_ZN4llvm6detail11unwrapValueIPN5clang4DeclEEEDcRT_(ptr noundef nonnull align 8 dereferenceable(8) %3)
  %9 = load ptr, ptr %8, align 8
  %10 = call noundef ptr @_ZN4llvm4castIN5clang26ConstructorUsingShadowDeclENS1_4DeclEEEDcPT0_(ptr noundef %9)
  store ptr %10, ptr %2, align 8
  br label %11

11:                                               ; preds = %7, %5
  %12 = load ptr, ptr %2, align 8
  ret ptr %12
}

; Function Attrs: mustprogress nounwind uwtable
define linkonce_odr noundef ptr @_ZN4llvm12cast_or_nullIN5clang26ConstructorUsingShadowDeclENS1_4DeclEEEDaPT0_(ptr noundef %0) #0 comdat {
  %2 = alloca ptr, align 8
  store ptr %0, ptr %2, align 8
  %3 = load ptr, ptr %2, align 8
  %4 = call noundef ptr @_ZN4llvm15cast_if_presentIN5clang26ConstructorUsingShadowDeclENS1_4DeclEEEDaPT0_(ptr noundef %3)
  ret ptr %4
}

; Function Attrs: mustprogress nounwind uwtable
define linkonce_odr hidden noundef ptr @_ZN4llvm25SmallVectorTemplateCommonImvE5beginEv(ptr noundef nonnull align 8 dereferenceable(16) %0) #0 comdat align 2 {
  %2 = alloca ptr, align 8
  store ptr %0, ptr %2, align 8
  %3 = load ptr, ptr %2, align 8
  %4 = getelementptr inbounds nuw %"class.llvm::SmallVectorBase", ptr %3, i32 0, i32 0
  %5 = load ptr, ptr %4, align 8
  ret ptr %5
}

; Function Attrs: mustprogress nounwind uwtable
define linkonce_odr hidden noundef ptr @_ZN5clang9ASTReader10ReadDeclAsINS_26ConstructorUsingShadowDeclEEEPT_RNS_13serialization10ModuleFileERKN4llvm15SmallVectorImplImEERj(ptr noundef nonnull align 8 dereferenceable(15968) %0, ptr noundef nonnull align 8 dereferenceable(3464) %1, ptr noundef nonnull align 8 dereferenceable(16) %2, ptr noundef nonnull align 4 dereferenceable(4) %3) #0 comdat align 2 {
  %5 = alloca ptr, align 8
  %6 = alloca ptr, align 8
  %7 = alloca ptr, align 8
  %8 = alloca ptr, align 8
  %9 = alloca %"class.clang::GlobalDeclID", align 8
  store ptr %0, ptr %5, align 8
  store ptr %1, ptr %6, align 8
  store ptr %2, ptr %7, align 8
  store ptr %3, ptr %8, align 8
  %10 = load ptr, ptr %5, align 8
  %11 = load ptr, ptr %6, align 8
  %12 = load ptr, ptr %7, align 8
  %13 = load ptr, ptr %8, align 8
  %14 = call i64 @_ZN5clang9ASTReader10ReadDeclIDERNS_13serialization10ModuleFileERKN4llvm15SmallVectorImplImEERj(ptr noundef nonnull align 8 dereferenceable(15968) %10, ptr noundef nonnull align 8 dereferenceable(3464) %11, ptr noundef nonnull align 8 dereferenceable(16) %12, ptr noundef nonnull align 4 dereferenceable(4) %13)
  %15 = getelementptr inbounds nuw %"class.clang::GlobalDeclID", ptr %9, i32 0, i32 0
  %16 = getelementptr inbounds nuw %"class.clang::DeclIDBase", ptr %15, i32 0, i32 0
  store i64 %14, ptr %16, align 8
  %17 = getelementptr inbounds nuw %"class.clang::GlobalDeclID", ptr %9, i32 0, i32 0
  %18 = getelementptr inbounds nuw %"class.clang::DeclIDBase", ptr %17, i32 0, i32 0
  %19 = load i64, ptr %18, align 8
  %20 = call noundef ptr @_ZN5clang9ASTReader7GetDeclENS_12GlobalDeclIDE(ptr noundef nonnull align 8 dereferenceable(15968) %10, i64 %19)
  %21 = call noundef ptr @_ZN4llvm12cast_or_nullIN5clang26ConstructorUsingShadowDeclENS1_4DeclEEEDaPT0_(ptr noundef %20)
  ret ptr %21
}

; Function Attrs: mustprogress nounwind uwtable
define linkonce_odr hidden noundef nonnull align 8 dereferenceable(8) ptr @_ZN4llvm25SmallVectorTemplateCommonImvEixEm(ptr noundef nonnull align 8 dereferenceable(16) %0, i64 noundef %1) #0 comdat align 2 {
  %3 = alloca ptr, align 8
  %4 = alloca i64, align 8
  store ptr %0, ptr %3, align 8
  store i64 %1, ptr %4, align 8
  %5 = load ptr, ptr %3, align 8
  %6 = call noundef ptr @_ZN4llvm25SmallVectorTemplateCommonImvE5beginEv(ptr noundef nonnull align 8 dereferenceable(16) %5)
  %7 = load i64, ptr %4, align 8
  %8 = getelementptr inbounds i64, ptr %6, i64 %7
  ret ptr %8
}

; Function Attrs: mustprogress nounwind uwtable
define linkonce_odr hidden noundef ptr @_ZN5clang15ASTRecordReader10readDeclAsINS_26ConstructorUsingShadowDeclEEEPT_v(ptr noundef nonnull align 8 dereferenceable(560) %0) #0 comdat align 2 {
  %2 = alloca ptr, align 8
  store ptr %0, ptr %2, align 8
  %3 = load ptr, ptr %2, align 8
  %4 = getelementptr inbounds nuw %"class.clang::ASTRecordReader", ptr %3, i32 0, i32 1
  %5 = load ptr, ptr %4, align 8
  %6 = getelementptr inbounds nuw %"class.clang::ASTRecordReader", ptr %3, i32 0, i32 2
  %7 = load ptr, ptr %6, align 8
  %8 = getelementptr inbounds nuw %"class.clang::ASTRecordReader", ptr %3, i32 0, i32 4
  %9 = getelementptr inbounds nuw %"class.clang::ASTRecordReader", ptr %3, i32 0, i32 3
  %10 = call noundef ptr @_ZN5clang9ASTReader10ReadDeclAsINS_26ConstructorUsingShadowDeclEEEPT_RNS_13serialization10ModuleFileERKN4llvm15SmallVectorImplImEERj(ptr noundef nonnull align 8 dereferenceable(15968) %5, ptr noundef nonnull align 8 dereferenceable(3464) %7, ptr noundef nonnull align 8 dereferenceable(16) %8, ptr noundef nonnull align 4 dereferenceable(4) %9)
  ret ptr %10
}

; Function Attrs: mustprogress nounwind uwtable
define linkonce_odr hidden noundef i64 @_ZN5clang15ASTRecordReader7readIntEv(ptr noundef nonnull align 8 dereferenceable(560) %0) #0 comdat align 2 {
  %2 = alloca ptr, align 8
  store ptr %0, ptr %2, align 8
  %3 = load ptr, ptr %2, align 8
  %4 = getelementptr inbounds nuw %"class.clang::ASTRecordReader", ptr %3, i32 0, i32 4
  %5 = getelementptr inbounds nuw %"class.clang::ASTRecordReader", ptr %3, i32 0, i32 3
  %6 = load i32, ptr %5, align 8
  %7 = add i32 %6, 1
  store i32 %7, ptr %5, align 8
  %8 = zext i32 %6 to i64
  %9 = call noundef nonnull align 8 dereferenceable(8) ptr @_ZN4llvm25SmallVectorTemplateCommonImvEixEm(ptr noundef nonnull align 8 dereferenceable(16) %4, i64 noundef %8)
  %10 = load i64, ptr %9, align 8
  ret i64 %10
}

; Function Attrs: mustprogress nounwind uwtable
define linkonce_odr hidden noundef ptr @_ZN5clang13ASTDeclReader10readDeclAsINS_26ConstructorUsingShadowDeclEEEPT_v(ptr noundef nonnull align 8 dereferenceable(89) %0) #0 comdat align 2 {
  %2 = alloca ptr, align 8
  store ptr %0, ptr %2, align 8
  %3 = load ptr, ptr %2, align 8
  %4 = getelementptr inbounds nuw %"class.clang::ASTDeclReader", ptr %3, i32 0, i32 2
  %5 = load ptr, ptr %4, align 8
  %6 = call noundef ptr @_ZN5clang15ASTRecordReader10readDeclAsINS_26ConstructorUsingShadowDeclEEEPT_v(ptr noundef nonnull align 8 dereferenceable(560) %5)
  ret ptr %6
}

; Function Attrs: mustprogress nounwind uwtable
define dso_local void @_ZN5clang13ASTDeclReader31VisitConstructorUsingShadowDeclEPNS_26ConstructorUsingShadowDeclE(ptr noundef nonnull align 8 dereferenceable(89) %0, ptr noundef %1) #0 align 2 {
  %3 = alloca ptr, align 8
  %4 = alloca ptr, align 8
  store ptr %0, ptr %3, align 8
  store ptr %1, ptr %4, align 8
  %5 = load ptr, ptr %3, align 8
  %6 = load ptr, ptr %4, align 8
  call void @_ZN5clang13ASTDeclReader20VisitUsingShadowDeclEPNS_15UsingShadowDeclE(ptr noundef nonnull align 8 dereferenceable(89) %5, ptr noundef %6)
  %7 = call noundef ptr @_ZN5clang13ASTDeclReader10readDeclAsINS_26ConstructorUsingShadowDeclEEEPT_v(ptr noundef nonnull align 8 dereferenceable(89) %5)
  %8 = load ptr, ptr %4, align 8
  %9 = getelementptr inbounds nuw %"class.clang::ConstructorUsingShadowDecl", ptr %8, i32 0, i32 1
  store ptr %7, ptr %9, align 8
  %10 = call noundef ptr @_ZN5clang13ASTDeclReader10readDeclAsINS_26ConstructorUsingShadowDeclEEEPT_v(ptr noundef nonnull align 8 dereferenceable(89) %5)
  %11 = load ptr, ptr %4, align 8
  %12 = getelementptr inbounds nuw %"class.clang::ConstructorUsingShadowDecl", ptr %11, i32 0, i32 2
  store ptr %10, ptr %12, align 8
  %13 = getelementptr inbounds nuw %"class.clang::ASTDeclReader", ptr %5, i32 0, i32 2
  %14 = load ptr, ptr %13, align 8
  %15 = call noundef i64 @_ZN5clang15ASTRecordReader7readIntEv(ptr noundef nonnull align 8 dereferenceable(560) %14)
  %16 = trunc i64 %15 to i32
  %17 = load ptr, ptr %4, align 8
  %18 = getelementptr inbounds nuw %"class.clang::ConstructorUsingShadowDecl", ptr %17, i32 0, i32 3
  %19 = trunc i32 %16 to i8
  %20 = load i8, ptr %18, align 8
  %21 = and i8 %19, 1
  %22 = and i8 %20, -2
  %23 = or i8 %22, %21
  store i8 %23, ptr %18, align 8
  ret void
}