; Function Attrs: mustprogress nounwind uwtable
define dso_local void @_ZN5clang13ASTDeclReader31VisitConstructorUsingShadowDeclEPNS_26ConstructorUsingShadowDeclE(ptr noundef nonnull align 8 dereferenceable(89) %0, ptr noundef %1) local_unnamed_addr #1 align 2 {
  tail call void @_ZN5clang13ASTDeclReader20VisitUsingShadowDeclEPNS_15UsingShadowDeclE(ptr noundef nonnull align 8 dereferenceable(89) %0, ptr noundef %1)
  %3 = getelementptr inbounds nuw i8, ptr %0, i64 16
  %4 = load ptr, ptr %3, align 8
  %5 = getelementptr inbounds nuw i8, ptr %4, i64 8
  %6 = load ptr, ptr %5, align 8
  %7 = getelementptr inbounds nuw i8, ptr %4, i64 16
  %8 = load ptr, ptr %7, align 8
  %9 = getelementptr inbounds nuw i8, ptr %4, i64 32
  %10 = getelementptr inbounds nuw i8, ptr %4, i64 24
  %11 = tail call i64 @_ZN5clang9ASTReader10ReadDeclIDERNS_13serialization10ModuleFileERKN4llvm15SmallVectorImplImEERj(ptr noundef nonnull align 8 dereferenceable(15968) %6, ptr noundef nonnull align 8 dereferenceable(3464) %8, ptr noundef nonnull align 8 dereferenceable(16) %9, ptr noundef nonnull align 4 dereferenceable(4) %10) #26
  %12 = tail call noundef ptr @_ZN5clang9ASTReader7GetDeclENS_12GlobalDeclIDE(ptr noundef nonnull align 8 dereferenceable(15968) %6, i64 %11) #26
  %13 = getelementptr inbounds nuw i8, ptr %1, i64 80
  store ptr %12, ptr %13, align 8
  %14 = load ptr, ptr %3, align 8
  %15 = getelementptr inbounds nuw i8, ptr %14, i64 8
  %16 = load ptr, ptr %15, align 8
  %17 = getelementptr inbounds nuw i8, ptr %14, i64 16
  %18 = load ptr, ptr %17, align 8
  %19 = getelementptr inbounds nuw i8, ptr %14, i64 32
  %20 = getelementptr inbounds nuw i8, ptr %14, i64 24
  %21 = tail call i64 @_ZN5clang9ASTReader10ReadDeclIDERNS_13serialization10ModuleFileERKN4llvm15SmallVectorImplImEERj(ptr noundef nonnull align 8 dereferenceable(15968) %16, ptr noundef nonnull align 8 dereferenceable(3464) %18, ptr noundef nonnull align 8 dereferenceable(16) %19, ptr noundef nonnull align 4 dereferenceable(4) %20) #26
  %22 = tail call noundef ptr @_ZN5clang9ASTReader7GetDeclENS_12GlobalDeclIDE(ptr noundef nonnull align 8 dereferenceable(15968) %16, i64 %21) #26
  %23 = getelementptr inbounds nuw i8, ptr %1, i64 88
  store ptr %22, ptr %23, align 8
  %24 = load ptr, ptr %3, align 8
  %25 = getelementptr inbounds nuw i8, ptr %24, i64 32
  %26 = getelementptr inbounds nuw i8, ptr %24, i64 24
  %27 = load i32, ptr %26, align 8
  %28 = add i32 %27, 1
  store i32 %28, ptr %26, align 8
  %29 = zext i32 %27 to i64
  %30 = load ptr, ptr %25, align 8
  %31 = getelementptr inbounds i64, ptr %30, i64 %29
  %32 = load i64, ptr %31, align 8
  %33 = getelementptr inbounds nuw i8, ptr %1, i64 96
  %34 = trunc i64 %32 to i8
  %35 = load i8, ptr %33, align 8
  %36 = and i8 %34, 1
  %37 = and i8 %35, -2
  %38 = or disjoint i8 %37, %36
  store i8 %38, ptr %33, align 8
  ret void
}